; ModuleID = 'bench/boost/original/properties.ll'
source_filename = "bench/boost/original/properties.ll"
target datalayout = "e-m:e-p270:32:32-p271:32:32-p272:64:64-i64:64-i128:128-f80:128-n8:16:32:64-S128"
target triple = "x86_64-pc-linux-gnu"

%"class.std::ios_base::Init" = type { i8 }

$_ZTIN5boost6fibers4algo9algorithmE = comdat any

$_ZTSN5boost6fibers4algo9algorithmE = comdat any

$_ZTIN5boost6fibers4algo30algorithm_with_properties_baseE = comdat any

$_ZTSN5boost6fibers4algo30algorithm_with_properties_baseE = comdat any

@_ZStL8__ioinit = internal global %"class.std::ios_base::Init" zeroinitializer, align 1
@__dso_handle = external hidden global i8
@_ZTIN5boost6fibers4algo9algorithmE = linkonce_odr constant { ptr, ptr } { ptr getelementptr inbounds (ptr, ptr @_ZTVN10__cxxabiv117__class_type_infoE, i64 2), ptr @_ZTSN5boost6fibers4algo9algorithmE }, comdat, align 8
@_ZTVN10__cxxabiv117__class_type_infoE = external global [0 x ptr]
@_ZTSN5boost6fibers4algo9algorithmE = linkonce_odr constant [31 x i8] c"N5boost6fibers4algo9algorithmE\00", comdat, align 1
@_ZTIN5boost6fibers4algo30algorithm_with_properties_baseE = linkonce_odr constant { ptr, ptr, ptr } { ptr getelementptr inbounds (ptr, ptr @_ZTVN10__cxxabiv120__si_class_type_infoE, i64 2), ptr @_ZTSN5boost6fibers4algo30algorithm_with_properties_baseE, ptr @_ZTIN5boost6fibers4algo9algorithmE }, comdat, align 8
@_ZTVN10__cxxabiv120__si_class_type_infoE = external global [0 x ptr]
@_ZTSN5boost6fibers4algo30algorithm_with_properties_baseE = linkonce_odr constant [53 x i8] c"N5boost6fibers4algo30algorithm_with_properties_baseE\00", comdat, align 1
@llvm.global_ctors = appending global [1 x { i32, ptr, ptr }] [{ i32, ptr, ptr } { i32 65535, ptr @_GLOBAL__sub_I_properties.cpp, ptr null }]

declare void @_ZNSt8ios_base4InitC1Ev(ptr noundef nonnull align 1 dereferenceable(1)) unnamed_addr #0

; Function Attrs: nounwind
declare void @_ZNSt8ios_base4InitD1Ev(ptr noundef nonnull align 1 dereferenceable(1)) unnamed_addr #1

; Function Attrs: nofree nounwind
declare i32 @__cxa_atexit(ptr, ptr, ptr) local_unnamed_addr #2

; Function Attrs: mustprogress nounwind uwtable
define void @_ZN5boost6fibers16fiber_properties6notifyEv(ptr noundef nonnull align 8 dereferenceable(24) %0) local_unnamed_addr #3 align 2 {
  %2 = getelementptr inbounds nuw i8, ptr %0, i64 8
  %3 = load ptr, ptr %2, align 8, !tbaa !3
  %4 = tail call noundef zeroext i1 @_ZNK5boost6fibers7context15ready_is_linkedEv(ptr noundef nonnull align 8 dereferenceable(232) %3) #6
  br i1 %4, label %5, label %13

5:                                                ; preds = %1
  %6 = getelementptr inbounds nuw i8, ptr %0, i64 16
  %7 = load ptr, ptr %6, align 8, !tbaa !8, !nonnull !9, !noundef !9
  %8 = tail call ptr @__dynamic_cast(ptr nonnull %7, ptr nonnull @_ZTIN5boost6fibers4algo9algorithmE, ptr nonnull @_ZTIN5boost6fibers4algo30algorithm_with_properties_baseE, i64 0) #6
  %9 = load ptr, ptr %2, align 8, !tbaa !3
  %10 = load ptr, ptr %8, align 8, !tbaa !10
  %11 = getelementptr inbounds i8, ptr %10, i64 56
  %12 = load ptr, ptr %11, align 8
  tail call void %12(ptr noundef nonnull align 8 dereferenceable(16) %8, ptr noundef %9, ptr noundef nonnull %0) #6
  br label %13

13:                                               ; preds = %5, %1
  ret void
}

; Function Attrs: nounwind
declare noundef zeroext i1 @_ZNK5boost6fibers7context15ready_is_linkedEv(ptr noundef nonnull align 8 dereferenceable(232)) local_unnamed_addr #1

; Function Attrs: mustprogress nofree nounwind willreturn memory(read)
declare ptr @__dynamic_cast(ptr, ptr, ptr, i64) local_unnamed_addr #4

; Function Attrs: uwtable
define internal void @_GLOBAL__sub_I_properties.cpp() #5 section ".text.startup" {
  tail call void @_ZNSt8ios_base4InitC1Ev(ptr noundef nonnull align 1 dereferenceable(1) @_ZStL8__ioinit)
  %1 = tail call i32 @__cxa_atexit(ptr nonnull @_ZNSt8ios_base4InitD1Ev, ptr nonnull @_ZStL8__ioinit, ptr nonnull @__dso_handle) #6
  ret void
}


!llvm.module.flags = !{!0, !1, !2}

!0 = !{i32 1, !"wchar_size", i32 4}
!1 = !{i32 8, !"PIC Level", i32 2}
!2 = !{i32 7, !"uwtable", i32 2}
!3 = !{!4, !5, i64 8}
!4 = !{!"_ZTSN5boost6fibers16fiber_propertiesE", !5, i64 8, !5, i64 16}
!5 = !{!"any pointer", !6, i64 0}
!6 = !{!"omnipotent char", !7, i64 0}
!7 = !{!"Simple C++ TBAA"}
!8 = !{!4, !5, i64 16}
!9 = !{}
!10 = !{!11, !11, i64 0}
!11 = !{!"vtable pointer", !7, i64 0}
